target datalayout = "e-m:e-p270:32:32-p271:32:32-p272:64:64-i64:64-i128:128-f80:128-n8:16:32:64-S128"
target triple = "x86_64-pc-linux-gnu"

@.str.62 = private unnamed_addr constant [8 x i8] c"unknown\00", align 1
@.str.146 = private unnamed_addr constant [3 x i8] c"up\00", align 1
@.str.147 = private unnamed_addr constant [5 x i8] c"down\00", align 1
@.str.148 = private unnamed_addr constant [8 x i8] c"drained\00", align 1
@.str.149 = private unnamed_addr constant [5 x i8] c"fail\00", align 1
@.str.150 = private unnamed_addr constant [5 x i8] c"idle\00", align 1
@.str.151 = private unnamed_addr constant [5 x i8] c"time\00", align 1
@.str.152 = private unnamed_addr constant [5 x i8] c"fini\00", align 1
@.str.153 = private unnamed_addr constant [9 x i8] c"reconfig\00", align 1
@.str.154 = private unnamed_addr constant [26 x i8] c"primary_slurmctld_failure\00", align 1
@.str.155 = private unnamed_addr constant [36 x i8] c"primary_slurmctld_resumed_operation\00", align 1
@.str.156 = private unnamed_addr constant [34 x i8] c"primary_slurmctld_resumed_control\00", align 1
@.str.157 = private unnamed_addr constant [35 x i8] c"primary_slurmctld_acct_buffer_full\00", align 1
@.str.158 = private unnamed_addr constant [25 x i8] c"backup_slurmctld_failure\00", align 1
@.str.159 = private unnamed_addr constant [35 x i8] c"backup_slurmctld_resumed_operation\00", align 1
@.str.160 = private unnamed_addr constant [33 x i8] c"backup_slurmctld_assumed_control\00", align 1
@.str.161 = private unnamed_addr constant [25 x i8] c"primary_slurmdbd_failure\00", align 1
@.str.162 = private unnamed_addr constant [35 x i8] c"primary_slurmdbd_resumed_operation\00", align 1
@.str.163 = private unnamed_addr constant [25 x i8] c"primary_database_failure\00", align 1
@.str.164 = private unnamed_addr constant [35 x i8] c"primary_database_resumed_operation\00", align 1
@.str.165 = private unnamed_addr constant [13 x i8] c"burst_buffer\00", align 1
@.str.166 = private unnamed_addr constant [9 x i8] c"draining\00", align 1
@.str.167 = private unnamed_addr constant [7 x i8] c"resume\00", align 1

; Function Attrs: nounwind uwtable
define dso_local ptr @trigger_type(i32 noundef %0) #0 {
  %2 = alloca ptr, align 8
  %3 = alloca i32, align 4
  store i32 %0, ptr %3, align 4
  %4 = load i32, ptr %3, align 4
  %5 = zext i32 %4 to i64
  %6 = icmp eq i64 %5, 1
  br i1 %6, label %7, label %8

7:                                                ; preds = %1
  store ptr @.str.146, ptr %2, align 8
  br label %114

8:                                                ; preds = %1
  %9 = load i32, ptr %3, align 4
  %10 = zext i32 %9 to i64
  %11 = icmp eq i64 %10, 2
  br i1 %11, label %12, label %13

12:                                               ; preds = %8
  store ptr @.str.147, ptr %2, align 8
  br label %114

13:                                               ; preds = %8
  %14 = load i32, ptr %3, align 4
  %15 = zext i32 %14 to i64
  %16 = icmp eq i64 %15, 256
  br i1 %16, label %17, label %18

17:                                               ; preds = %13
  store ptr @.str.148, ptr %2, align 8
  br label %114

18:                                               ; preds = %13
  %19 = load i32, ptr %3, align 4
  %20 = zext i32 %19 to i64
  %21 = icmp eq i64 %20, 4
  br i1 %21, label %22, label %23

22:                                               ; preds = %18
  store ptr @.str.149, ptr %2, align 8
  br label %114

23:                                               ; preds = %18
  %24 = load i32, ptr %3, align 4
  %25 = zext i32 %24 to i64
  %26 = icmp eq i64 %25, 128
  br i1 %26, label %27, label %28

27:                                               ; preds = %23
  store ptr @.str.150, ptr %2, align 8
  br label %114

28:                                               ; preds = %23
  %29 = load i32, ptr %3, align 4
  %30 = zext i32 %29 to i64
  %31 = icmp eq i64 %30, 8
  br i1 %31, label %32, label %33

32:                                               ; preds = %28
  store ptr @.str.151, ptr %2, align 8
  br label %114

33:                                               ; preds = %28
  %34 = load i32, ptr %3, align 4
  %35 = zext i32 %34 to i64
  %36 = icmp eq i64 %35, 16
  br i1 %36, label %37, label %38

37:                                               ; preds = %33
  store ptr @.str.152, ptr %2, align 8
  br label %114

38:                                               ; preds = %33
  %39 = load i32, ptr %3, align 4
  %40 = zext i32 %39 to i64
  %41 = icmp eq i64 %40, 32
  br i1 %41, label %42, label %43

42:                                               ; preds = %38
  store ptr @.str.153, ptr %2, align 8
  br label %114

43:                                               ; preds = %38
  %44 = load i32, ptr %3, align 4
  %45 = zext i32 %44 to i64
  %46 = icmp eq i64 %45, 512
  br i1 %46, label %47, label %48

47:                                               ; preds = %43
  store ptr @.str.154, ptr %2, align 8
  br label %114

48:                                               ; preds = %43
  %49 = load i32, ptr %3, align 4
  %50 = zext i32 %49 to i64
  %51 = icmp eq i64 %50, 1024
  br i1 %51, label %52, label %53

52:                                               ; preds = %48
  store ptr @.str.155, ptr %2, align 8
  br label %114

53:                                               ; preds = %48
  %54 = load i32, ptr %3, align 4
  %55 = zext i32 %54 to i64
  %56 = icmp eq i64 %55, 2048
  br i1 %56, label %57, label %58

57:                                               ; preds = %53
  store ptr @.str.156, ptr %2, align 8
  br label %114

58:                                               ; preds = %53
  %59 = load i32, ptr %3, align 4
  %60 = zext i32 %59 to i64
  %61 = icmp eq i64 %60, 4096
  br i1 %61, label %62, label %63

62:                                               ; preds = %58
  store ptr @.str.157, ptr %2, align 8
  br label %114

63:                                               ; preds = %58
  %64 = load i32, ptr %3, align 4
  %65 = zext i32 %64 to i64
  %66 = icmp eq i64 %65, 8192
  br i1 %66, label %67, label %68

67:                                               ; preds = %63
  store ptr @.str.158, ptr %2, align 8
  br label %114

68:                                               ; preds = %63
  %69 = load i32, ptr %3, align 4
  %70 = zext i32 %69 to i64
  %71 = icmp eq i64 %70, 16384
  br i1 %71, label %72, label %73

72:                                               ; preds = %68
  store ptr @.str.159, ptr %2, align 8
  br label %114

73:                                               ; preds = %68
  %74 = load i32, ptr %3, align 4
  %75 = zext i32 %74 to i64
  %76 = icmp eq i64 %75, 32768
  br i1 %76, label %77, label %78

77:                                               ; preds = %73
  store ptr @.str.160, ptr %2, align 8
  br label %114

78:                                               ; preds = %73
  %79 = load i32, ptr %3, align 4
  %80 = zext i32 %79 to i64
  %81 = icmp eq i64 %80, 65536
  br i1 %81, label %82, label %83

82:                                               ; preds = %78
  store ptr @.str.161, ptr %2, align 8
  br label %114

83:                                               ; preds = %78
  %84 = load i32, ptr %3, align 4
  %85 = zext i32 %84 to i64
  %86 = icmp eq i64 %85, 131072
  br i1 %86, label %87, label %88

87:                                               ; preds = %83
  store ptr @.str.162, ptr %2, align 8
  br label %114

88:                                               ; preds = %83
  %89 = load i32, ptr %3, align 4
  %90 = zext i32 %89 to i64
  %91 = icmp eq i64 %90, 262144
  br i1 %91, label %92, label %93

92:                                               ; preds = %88
  store ptr @.str.163, ptr %2, align 8
  br label %114

93:                                               ; preds = %88
  %94 = load i32, ptr %3, align 4
  %95 = zext i32 %94 to i64
  %96 = icmp eq i64 %95, 524288
  br i1 %96, label %97, label %98

97:                                               ; preds = %93
  store ptr @.str.164, ptr %2, align 8
  br label %114

98:                                               ; preds = %93
  %99 = load i32, ptr %3, align 4
  %100 = zext i32 %99 to i64
  %101 = icmp eq i64 %100, 1048576
  br i1 %101, label %102, label %103

102:                                              ; preds = %98
  store ptr @.str.165, ptr %2, align 8
  br label %114

103:                                              ; preds = %98
  %104 = load i32, ptr %3, align 4
  %105 = zext i32 %104 to i64
  %106 = icmp eq i64 %105, 2097152
  br i1 %106, label %107, label %108

107:                                              ; preds = %103
  store ptr @.str.166, ptr %2, align 8
  br label %114

108:                                              ; preds = %103
  %109 = load i32, ptr %3, align 4
  %110 = zext i32 %109 to i64
  %111 = icmp eq i64 %110, 4194304
  br i1 %111, label %112, label %113

112:                                              ; preds = %108
  store ptr @.str.167, ptr %2, align 8
  br label %114

113:                                              ; preds = %108
  store ptr @.str.62, ptr %2, align 8
  br label %114

114:                                              ; preds = %113, %112, %107, %102, %97, %92, %87, %82, %77, %72, %67, %62, %57, %52, %47, %42, %37, %32, %27, %22, %17, %12, %7
  %115 = load ptr, ptr %2, align 8
  ret ptr %115
}