; Function Attrs: mustprogress nofree norecurse nosync nounwind willreturn memory(none) uwtable
define dso_local noundef nonnull ptr @trigger_type(i32 noundef %0) local_unnamed_addr #0 {
  switch i32 %0, label %23 [
    i32 1, label %24
    i32 2, label %2
    i32 256, label %3
    i32 4, label %4
    i32 128, label %5
    i32 8, label %6
    i32 16, label %7
    i32 32, label %8
    i32 512, label %9
    i32 1024, label %10
    i32 2048, label %11
    i32 4096, label %12
    i32 8192, label %13
    i32 16384, label %14
    i32 32768, label %15
    i32 65536, label %16
    i32 131072, label %17
    i32 262144, label %18
    i32 524288, label %19
    i32 1048576, label %20
    i32 2097152, label %21
    i32 4194304, label %22
  ]

2:                                                ; preds = %1
  br label %24

3:                                                ; preds = %1
  br label %24

4:                                                ; preds = %1
  br label %24

5:                                                ; preds = %1
  br label %24

6:                                                ; preds = %1
  br label %24

7:                                                ; preds = %1
  br label %24

8:                                                ; preds = %1
  br label %24

9:                                                ; preds = %1
  br label %24

10:                                               ; preds = %1
  br label %24

11:                                               ; preds = %1
  br label %24

12:                                               ; preds = %1
  br label %24

13:                                               ; preds = %1
  br label %24

14:                                               ; preds = %1
  br label %24

15:                                               ; preds = %1
  br label %24

16:                                               ; preds = %1
  br label %24

17:                                               ; preds = %1
  br label %24

18:                                               ; preds = %1
  br label %24

19:                                               ; preds = %1
  br label %24

20:                                               ; preds = %1
  br label %24

21:                                               ; preds = %1
  br label %24

22:                                               ; preds = %1
  br label %24

23:                                               ; preds = %1
  br label %24

24:                                               ; preds = %1, %23, %22, %21, %20, %19, %18, %17, %16, %15, %14, %13, %12, %11, %10, %9, %8, %7, %6, %5, %4, %3, %2
  %.0 = phi ptr [ @.str.147, %2 ], [ @.str.148, %3 ], [ @.str.149, %4 ], [ @.str.150, %5 ], [ @.str.151, %6 ], [ @.str.152, %7 ], [ @.str.153, %8 ], [ @.str.154, %9 ], [ @.str.155, %10 ], [ @.str.156, %11 ], [ @.str.157, %12 ], [ @.str.158, %13 ], [ @.str.159, %14 ], [ @.str.160, %15 ], [ @.str.161, %16 ], [ @.str.162, %17 ], [ @.str.163, %18 ], [ @.str.164, %19 ], [ @.str.165, %20 ], [ @.str.166, %21 ], [ @.str.167, %22 ], [ @.str.62, %23 ], [ @.str.146, %1 ]
  ret ptr %.0
}